target datalayout = "e-m:e-p270:32:32-p271:32:32-p272:64:64-i64:64-i128:128-f80:128-n8:16:32:64-S128"
target triple = "x86_64-pc-linux-gnu"

%struct.jv_parser = type { ptr, i32, i32, i32, i32, i32, i32, ptr, i32, i32, %struct.jv, i32, %struct.jv, %struct.jv, ptr, i32, i32, i32, i32, %struct.dtoa_context, i32, i8 }
%struct.jv = type { i8, i8, i16, i32, %union.anon }
%union.anon = type { ptr }
%struct.dtoa_context = type { [8 x ptr], ptr }

; Function Attrs: nounwind uwtable
define internal void @push(ptr noundef %0, i64 %1, ptr %2) #0 {
  %4 = alloca %struct.jv, align 8
  %5 = alloca ptr, align 8
  %6 = getelementptr inbounds nuw { i64, ptr }, ptr %4, i32 0, i32 0
  store i64 %1, ptr %6, align 8
  %7 = getelementptr inbounds nuw { i64, ptr }, ptr %4, i32 0, i32 1
  store ptr %2, ptr %7, align 8
  store ptr %0, ptr %5, align 8, !tbaa !8
  %8 = load ptr, ptr %5, align 8, !tbaa !8
  %9 = getelementptr inbounds nuw %struct.jv_parser, ptr %8, i32 0, i32 8
  %10 = load i32, ptr %9, align 8, !tbaa !22
  %11 = load ptr, ptr %5, align 8, !tbaa !8
  %12 = getelementptr inbounds nuw %struct.jv_parser, ptr %11, i32 0, i32 9
  %13 = load i32, ptr %12, align 4, !tbaa !23
  %14 = icmp eq i32 %10, %13
  br i1 %14, label %15, label %34

15:                                               ; preds = %3
  %16 = load ptr, ptr %5, align 8, !tbaa !8
  %17 = getelementptr inbounds nuw %struct.jv_parser, ptr %16, i32 0, i32 9
  %18 = load i32, ptr %17, align 4, !tbaa !23
  %19 = mul nsw i32 %18, 2
  %20 = add nsw i32 %19, 10
  %21 = load ptr, ptr %5, align 8, !tbaa !8
  %22 = getelementptr inbounds nuw %struct.jv_parser, ptr %21, i32 0, i32 9
  store i32 %20, ptr %22, align 4, !tbaa !23
  %23 = load ptr, ptr %5, align 8, !tbaa !8
  %24 = getelementptr inbounds nuw %struct.jv_parser, ptr %23, i32 0, i32 7
  %25 = load ptr, ptr %24, align 8, !tbaa !21
  %26 = load ptr, ptr %5, align 8, !tbaa !8
  %27 = getelementptr inbounds nuw %struct.jv_parser, ptr %26, i32 0, i32 9
  %28 = load i32, ptr %27, align 4, !tbaa !23
  %29 = sext i32 %28 to i64
  %30 = mul i64 %29, 16
  %31 = call ptr @jv_mem_realloc(ptr noundef %25, i64 noundef %30)
  %32 = load ptr, ptr %5, align 8, !tbaa !8
  %33 = getelementptr inbounds nuw %struct.jv_parser, ptr %32, i32 0, i32 7
  store ptr %31, ptr %33, align 8, !tbaa !21
  br label %34

34:                                               ; preds = %15, %3
  %35 = load ptr, ptr %5, align 8, !tbaa !8
  %36 = getelementptr inbounds nuw %struct.jv_parser, ptr %35, i32 0, i32 7
  %37 = load ptr, ptr %36, align 8, !tbaa !21
  %38 = load ptr, ptr %5, align 8, !tbaa !8
  %39 = getelementptr inbounds nuw %struct.jv_parser, ptr %38, i32 0, i32 8
  %40 = load i32, ptr %39, align 8, !tbaa !22
  %41 = add nsw i32 %40, 1
  store i32 %41, ptr %39, align 8, !tbaa !22
  %42 = sext i32 %40 to i64
  %43 = getelementptr inbounds %struct.jv, ptr %37, i64 %42
  call void @llvm.memcpy.p0.p0.i64(ptr align 8 %43, ptr align 8 %4, i64 16, i1 false), !tbaa.struct !18
  ret void
}