; Function Attrs: nounwind uwtable
define internal fastcc void @push(ptr noundef captures(none) %0, i64 %1, ptr %2) unnamed_addr #0 {
  %4 = getelementptr inbounds nuw i8, ptr %0, i64 40
  %5 = load i32, ptr %4, align 8, !tbaa !32
  %6 = getelementptr inbounds nuw i8, ptr %0, i64 44
  %7 = load i32, ptr %6, align 4, !tbaa !31
  %8 = icmp eq i32 %5, %7
  br i1 %8, label %9, label %._crit_edge

._crit_edge:                                      ; preds = %3
  %.phi.trans.insert = getelementptr inbounds nuw i8, ptr %0, i64 32
  %.pre = load ptr, ptr %.phi.trans.insert, align 8, !tbaa !20
  br label %17

9:                                                ; preds = %3
  %10 = shl nsw i32 %5, 1
  %11 = add nsw i32 %10, 10
  store i32 %11, ptr %6, align 4, !tbaa !31
  %12 = getelementptr inbounds nuw i8, ptr %0, i64 32
  %13 = load ptr, ptr %12, align 8, !tbaa !20
  %14 = sext i32 %11 to i64
  %15 = shl nsw i64 %14, 4
  %16 = tail call ptr @jv_mem_realloc(ptr noundef %13, i64 noundef %15) #9
  store ptr %16, ptr %12, align 8, !tbaa !20
  %.pre9 = load i32, ptr %4, align 8, !tbaa !32
  br label %17

17:                                               ; preds = %._crit_edge, %9
  %18 = phi i32 [ %5, %._crit_edge ], [ %.pre9, %9 ]
  %19 = phi ptr [ %.pre, %._crit_edge ], [ %16, %9 ]
  %20 = add nsw i32 %18, 1
  store i32 %20, ptr %4, align 8, !tbaa !32
  %21 = sext i32 %18 to i64
  %22 = getelementptr inbounds %struct.jv, ptr %19, i64 %21
  store i64 %1, ptr %22, align 8
  %.sroa.2.0..sroa_idx = getelementptr inbounds nuw i8, ptr %22, i64 8
  store ptr %2, ptr %.sroa.2.0..sroa_idx, align 8, !tbaa !15
  ret void
}